target datalayout = "e-m:e-p270:32:32-p271:32:32-p272:64:64-i64:64-i128:128-f80:128-n8:16:32:64-S128"
target triple = "x86_64-pc-linux-gnu"

%struct.PKCS12_st = type { ptr, ptr, ptr }
%struct.PKCS12_MAC_DATA_st = type { ptr, ptr, ptr }
%struct.X509_algor_st = type { ptr, ptr }
%struct.PBMAC1PARAM = type { ptr, ptr }

@.str = private unnamed_addr constant [36 x i8] c"../openssl/crypto/pkcs12/p12_mutl.c\00", align 1
@__func__.PKCS12_set_pbmac1_pbkdf2 = private unnamed_addr constant [25 x i8] c"PKCS12_set_pbmac1_pbkdf2\00", align 1

; Function Attrs: nounwind uwtable
define i32 @PKCS12_set_pbmac1_pbkdf2(ptr noundef %0, ptr noundef %1, i32 noundef %2, ptr noundef %3, i32 noundef %4, i32 noundef %5, ptr noundef %6, ptr noundef %7) #0 {
  %9 = alloca ptr, align 8
  %10 = alloca ptr, align 8
  %11 = alloca i32, align 4
  %12 = alloca ptr, align 8
  %13 = alloca i32, align 4
  %14 = alloca i32, align 4
  %15 = alloca ptr, align 8
  %16 = alloca ptr, align 8
  %17 = alloca [64 x i8], align 16
  %18 = alloca i32, align 4
  %19 = alloca ptr, align 8
  %20 = alloca ptr, align 8
  %21 = alloca i32, align 4
  %22 = alloca i32, align 4
  %23 = alloca i32, align 4
  %24 = alloca i32, align 4
  %25 = alloca ptr, align 8
  %26 = alloca i32, align 4
  %27 = alloca ptr, align 8
  %28 = alloca ptr, align 8
  %29 = alloca ptr, align 8
  store ptr %0, ptr %9, align 8, !tbaa !3
  store ptr %1, ptr %10, align 8, !tbaa !35
  store i32 %2, ptr %11, align 4, !tbaa !37
  store ptr %3, ptr %12, align 8, !tbaa !35
  store i32 %4, ptr %13, align 4, !tbaa !37
  store i32 %5, ptr %14, align 4, !tbaa !37
  store ptr %6, ptr %15, align 8, !tbaa !55
  store ptr %7, ptr %16, align 8, !tbaa !35
  call void @llvm.lifetime.start.p0(i64 64, ptr %17) #4
  call void @llvm.lifetime.start.p0(i64 4, ptr %18) #4
  call void @llvm.lifetime.start.p0(i64 8, ptr %19) #4
  call void @llvm.lifetime.start.p0(i64 8, ptr %20) #4
  store ptr null, ptr %20, align 8, !tbaa !23
  call void @llvm.lifetime.start.p0(i64 4, ptr %21) #4
  store i32 0, ptr %21, align 4, !tbaa !37
  call void @llvm.lifetime.start.p0(i64 4, ptr %22) #4
  store i32 0, ptr %22, align 4, !tbaa !37
  call void @llvm.lifetime.start.p0(i64 4, ptr %23) #4
  store i32 0, ptr %23, align 4, !tbaa !37
  call void @llvm.lifetime.start.p0(i64 4, ptr %24) #4
  call void @llvm.lifetime.start.p0(i64 8, ptr %25) #4
  store ptr null, ptr %25, align 8, !tbaa !35
  call void @llvm.lifetime.start.p0(i64 4, ptr %26) #4
  store i32 0, ptr %26, align 4, !tbaa !37
  call void @llvm.lifetime.start.p0(i64 8, ptr %27) #4
  store ptr null, ptr %27, align 8, !tbaa !25
  call void @llvm.lifetime.start.p0(i64 8, ptr %28) #4
  store ptr null, ptr %28, align 8, !tbaa !23
  call void @llvm.lifetime.start.p0(i64 8, ptr %29) #4
  store ptr null, ptr %29, align 8, !tbaa !23
  %30 = load ptr, ptr %15, align 8, !tbaa !55
  %31 = icmp eq ptr %30, null
  br i1 %31, label %32, label %34

32:                                               ; preds = %8
  %33 = call ptr @EVP_sha256()
  store ptr %33, ptr %15, align 8, !tbaa !55
  br label %34

34:                                               ; preds = %32, %8
  %35 = load ptr, ptr %16, align 8, !tbaa !35
  %36 = icmp eq ptr %35, null
  br i1 %36, label %37, label %40

37:                                               ; preds = %34
  %38 = load ptr, ptr %15, align 8, !tbaa !55
  %39 = call i32 @EVP_MD_get_type(ptr noundef %38)
  store i32 %39, ptr %22, align 4, !tbaa !37
  br label %43

40:                                               ; preds = %34
  %41 = load ptr, ptr %16, align 8, !tbaa !35
  %42 = call i32 @OBJ_txt2nid(ptr noundef %41)
  store i32 %42, ptr %22, align 4, !tbaa !37
  br label %43

43:                                               ; preds = %40, %37
  %44 = load i32, ptr %14, align 4, !tbaa !37
  %45 = icmp eq i32 %44, 0
  br i1 %45, label %46, label %47

46:                                               ; preds = %43
  store i32 2048, ptr %14, align 4, !tbaa !37
  br label %47

47:                                               ; preds = %46, %43
  %48 = load ptr, ptr %15, align 8, !tbaa !55
  %49 = call i32 @EVP_MD_get_size(ptr noundef %48)
  store i32 %49, ptr %26, align 4, !tbaa !37
  %50 = load i32, ptr %22, align 4, !tbaa !37
  %51 = call i32 @ossl_md2hmacnid(i32 noundef %50)
  store i32 %51, ptr %23, align 4, !tbaa !37
  %52 = load ptr, ptr %15, align 8, !tbaa !55
  %53 = call i32 @EVP_MD_get_type(ptr noundef %52)
  %54 = call i32 @ossl_md2hmacnid(i32 noundef %53)
  store i32 %54, ptr %24, align 4, !tbaa !37
  %55 = load i32, ptr %23, align 4, !tbaa !37
  %56 = icmp eq i32 %55, 0
  br i1 %56, label %60, label %57

57:                                               ; preds = %47
  %58 = load i32, ptr %24, align 4, !tbaa !37
  %59 = icmp eq i32 %58, 0
  br i1 %59, label %60, label %61

60:                                               ; preds = %57, %47
  call void @ERR_new()
  call void @ERR_set_debug(ptr noundef @.str, i32 noundef 469, ptr noundef @__func__.PKCS12_set_pbmac1_pbkdf2)
  call void (i32, i32, ptr, ...) @ERR_set_error(i32 noundef 35, i32 noundef 118, ptr noundef null)
  br label %170

61:                                               ; preds = %57
  %62 = load ptr, ptr %12, align 8, !tbaa !35
  %63 = icmp eq ptr %62, null
  br i1 %63, label %64, label %79

64:                                               ; preds = %61
  %65 = load i32, ptr %13, align 4, !tbaa !37
  %66 = sext i32 %65 to i64
  %67 = call noalias ptr @CRYPTO_malloc(i64 noundef %66, ptr noundef @.str, i32 noundef 474)
  store ptr %67, ptr %25, align 8, !tbaa !35
  %68 = load ptr, ptr %25, align 8, !tbaa !35
  %69 = icmp eq ptr %68, null
  br i1 %69, label %70, label %71

70:                                               ; preds = %64
  br label %170

71:                                               ; preds = %64
  %72 = load ptr, ptr %25, align 8, !tbaa !35
  %73 = load i32, ptr %13, align 4, !tbaa !37
  %74 = sext i32 %73 to i64
  %75 = call i32 @RAND_bytes_ex(ptr noundef null, ptr noundef %72, i64 noundef %74, i32 noundef 0)
  %76 = icmp sle i32 %75, 0
  br i1 %76, label %77, label %78

77:                                               ; preds = %71
  call void @ERR_new()
  call void @ERR_set_debug(ptr noundef @.str, i32 noundef 479, ptr noundef @__func__.PKCS12_set_pbmac1_pbkdf2)
  call void (i32, i32, ptr, ...) @ERR_set_error(i32 noundef 35, i32 noundef 524324, ptr noundef null)
  br label %170

78:                                               ; preds = %71
  br label %79

79:                                               ; preds = %78, %61
  %80 = call ptr @PBMAC1PARAM_new()
  store ptr %80, ptr %27, align 8, !tbaa !25
  %81 = call ptr @X509_ALGOR_new()
  store ptr %81, ptr %28, align 8, !tbaa !23
  %82 = load i32, ptr %14, align 4, !tbaa !37
  %83 = load ptr, ptr %12, align 8, !tbaa !35
  %84 = icmp ne ptr %83, null
  br i1 %84, label %85, label %87

85:                                               ; preds = %79
  %86 = load ptr, ptr %12, align 8, !tbaa !35
  br label %89

87:                                               ; preds = %79
  %88 = load ptr, ptr %25, align 8, !tbaa !35
  br label %89

89:                                               ; preds = %87, %85
  %90 = phi ptr [ %86, %85 ], [ %88, %87 ]
  %91 = load i32, ptr %13, align 4, !tbaa !37
  %92 = load i32, ptr %23, align 4, !tbaa !37
  %93 = load i32, ptr %26, align 4, !tbaa !37
  %94 = call ptr @PKCS5_pbkdf2_set(i32 noundef %82, ptr noundef %90, i32 noundef %91, i32 noundef %92, i32 noundef %93)
  store ptr %94, ptr %20, align 8, !tbaa !23
  %95 = load ptr, ptr %27, align 8, !tbaa !25
  %96 = icmp eq ptr %95, null
  br i1 %96, label %103, label %97

97:                                               ; preds = %89
  %98 = load ptr, ptr %28, align 8, !tbaa !23
  %99 = icmp eq ptr %98, null
  br i1 %99, label %103, label %100

100:                                              ; preds = %97
  %101 = load ptr, ptr %20, align 8, !tbaa !23
  %102 = icmp eq ptr %101, null
  br i1 %102, label %103, label %104

103:                                              ; preds = %100, %97, %89
  br label %170

104:                                              ; preds = %100
  %105 = load ptr, ptr %9, align 8, !tbaa !3
  %106 = load i32, ptr %14, align 4, !tbaa !37
  %107 = load ptr, ptr %12, align 8, !tbaa !35
  %108 = icmp ne ptr %107, null
  br i1 %108, label %109, label %111

109:                                              ; preds = %104
  %110 = load ptr, ptr %12, align 8, !tbaa !35
  br label %113

111:                                              ; preds = %104
  %112 = load ptr, ptr %25, align 8, !tbaa !35
  br label %113

113:                                              ; preds = %111, %109
  %114 = phi ptr [ %110, %109 ], [ %112, %111 ]
  %115 = load i32, ptr %13, align 4, !tbaa !37
  %116 = call i32 @pkcs12_setup_mac(ptr noundef %105, i32 noundef %106, ptr noundef %114, i32 noundef %115, i32 noundef 162)
  %117 = icmp eq i32 %116, 0
  br i1 %117, label %118, label %119

118:                                              ; preds = %113
  call void @ERR_new()
  call void @ERR_set_debug(ptr noundef @.str, i32 noundef 492, ptr noundef @__func__.PKCS12_set_pbmac1_pbkdf2)
  call void (i32, i32, ptr, ...) @ERR_set_error(i32 noundef 35, i32 noundef 110, ptr noundef null)
  br label %170

119:                                              ; preds = %113
  %120 = load ptr, ptr %28, align 8, !tbaa !23
  %121 = load i32, ptr %24, align 4, !tbaa !37
  %122 = call ptr @OBJ_nid2obj(i32 noundef %121)
  %123 = call i32 @X509_ALGOR_set0(ptr noundef %120, ptr noundef %122, i32 noundef 5, ptr noundef null)
  %124 = icmp ne i32 %123, 0
  br i1 %124, label %126, label %125

125:                                              ; preds = %119
  call void @ERR_new()
  call void @ERR_set_debug(ptr noundef @.str, i32 noundef 497, ptr noundef @__func__.PKCS12_set_pbmac1_pbkdf2)
  call void (i32, i32, ptr, ...) @ERR_set_error(i32 noundef 35, i32 noundef 110, ptr noundef null)
  br label %170

126:                                              ; preds = %119
  %127 = load ptr, ptr %27, align 8, !tbaa !25
  %128 = getelementptr inbounds nuw %struct.PBMAC1PARAM, ptr %127, i32 0, i32 0
  %129 = load ptr, ptr %128, align 8, !tbaa !32
  call void @X509_ALGOR_free(ptr noundef %129)
  %130 = load ptr, ptr %27, align 8, !tbaa !25
  %131 = getelementptr inbounds nuw %struct.PBMAC1PARAM, ptr %130, i32 0, i32 1
  %132 = load ptr, ptr %131, align 8, !tbaa !57
  call void @X509_ALGOR_free(ptr noundef %132)
  %133 = load ptr, ptr %20, align 8, !tbaa !23
  %134 = load ptr, ptr %27, align 8, !tbaa !25
  %135 = getelementptr inbounds nuw %struct.PBMAC1PARAM, ptr %134, i32 0, i32 0
  store ptr %133, ptr %135, align 8, !tbaa !32
  %136 = load ptr, ptr %28, align 8, !tbaa !23
  %137 = load ptr, ptr %27, align 8, !tbaa !25
  %138 = getelementptr inbounds nuw %struct.PBMAC1PARAM, ptr %137, i32 0, i32 1
  store ptr %136, ptr %138, align 8, !tbaa !57
  %139 = load ptr, ptr %9, align 8, !tbaa !3
  %140 = getelementptr inbounds nuw %struct.PKCS12_st, ptr %139, i32 0, i32 1
  %141 = load ptr, ptr %140, align 8, !tbaa !8
  %142 = getelementptr inbounds nuw %struct.PKCS12_MAC_DATA_st, ptr %141, i32 0, i32 0
  %143 = load ptr, ptr %142, align 8, !tbaa !17
  call void @X509_SIG_getm(ptr noundef %143, ptr noundef %29, ptr noundef %19)
  %144 = call ptr @PBMAC1PARAM_it()
  %145 = load ptr, ptr %27, align 8, !tbaa !25
  %146 = load ptr, ptr %29, align 8, !tbaa !23
  %147 = getelementptr inbounds nuw %struct.X509_algor_st, ptr %146, i32 0, i32 1
  %148 = call ptr @ASN1_TYPE_pack_sequence(ptr noundef %144, ptr noundef %145, ptr noundef %147)
  %149 = icmp ne ptr %148, null
  br i1 %149, label %151, label %150

150:                                              ; preds = %126
  br label %170

151:                                              ; preds = %126
  %152 = load ptr, ptr %9, align 8, !tbaa !3
  %153 = load ptr, ptr %10, align 8, !tbaa !35
  %154 = load i32, ptr %11, align 4, !tbaa !37
  %155 = getelementptr inbounds [64 x i8], ptr %17, i64 0, i64 0
  %156 = load ptr, ptr %15, align 8, !tbaa !55
  %157 = call i32 @EVP_MD_get_type(ptr noundef %156)
  %158 = load i32, ptr %22, align 4, !tbaa !37
  %159 = call i32 @pkcs12_gen_mac(ptr noundef %152, ptr noundef %153, i32 noundef %154, ptr noundef %155, ptr noundef %18, i32 noundef %157, i32 noundef %158, ptr noundef @pkcs12_pbmac1_pbkdf2_key_gen)
  %160 = icmp ne i32 %159, 0
  br i1 %160, label %162, label %161

161:                                              ; preds = %151
  call void @ERR_new()
  call void @ERR_set_debug(ptr noundef @.str, i32 noundef 516, ptr noundef @__func__.PKCS12_set_pbmac1_pbkdf2)
  call void (i32, i32, ptr, ...) @ERR_set_error(i32 noundef 35, i32 noundef 109, ptr noundef null)
  br label %170

162:                                              ; preds = %151
  %163 = load ptr, ptr %19, align 8, !tbaa !21
  %164 = getelementptr inbounds [64 x i8], ptr %17, i64 0, i64 0
  %165 = load i32, ptr %18, align 4, !tbaa !37
  %166 = call i32 @ASN1_OCTET_STRING_set(ptr noundef %163, ptr noundef %164, i32 noundef %165)
  %167 = icmp ne i32 %166, 0
  br i1 %167, label %169, label %168

168:                                              ; preds = %162
  call void @ERR_new()
  call void @ERR_set_debug(ptr noundef @.str, i32 noundef 520, ptr noundef @__func__.PKCS12_set_pbmac1_pbkdf2)
  call void (i32, i32, ptr, ...) @ERR_set_error(i32 noundef 35, i32 noundef 111, ptr noundef null)
  br label %170

169:                                              ; preds = %162
  store i32 1, ptr %21, align 4, !tbaa !37
  br label %170

170:                                              ; preds = %169, %168, %161, %150, %125, %118, %103, %77, %70, %60
  %171 = load ptr, ptr %27, align 8, !tbaa !25
  call void @PBMAC1PARAM_free(ptr noundef %171)
  %172 = load ptr, ptr %25, align 8, !tbaa !35
  call void @CRYPTO_free(ptr noundef %172, ptr noundef @.str, i32 noundef 527)
  %173 = load i32, ptr %21, align 4, !tbaa !37
  call void @llvm.lifetime.end.p0(i64 8, ptr %29) #4
  call void @llvm.lifetime.end.p0(i64 8, ptr %28) #4
  call void @llvm.lifetime.end.p0(i64 8, ptr %27) #4
  call void @llvm.lifetime.end.p0(i64 4, ptr %26) #4
  call void @llvm.lifetime.end.p0(i64 8, ptr %25) #4
  call void @llvm.lifetime.end.p0(i64 4, ptr %24) #4
  call void @llvm.lifetime.end.p0(i64 4, ptr %23) #4
  call void @llvm.lifetime.end.p0(i64 4, ptr %22) #4
  call void @llvm.lifetime.end.p0(i64 4, ptr %21) #4
  call void @llvm.lifetime.end.p0(i64 8, ptr %20) #4
  call void @llvm.lifetime.end.p0(i64 8, ptr %19) #4
  call void @llvm.lifetime.end.p0(i64 4, ptr %18) #4
  call void @llvm.lifetime.end.p0(i64 64, ptr %17) #4
  ret i32 %173
}