; Function Attrs: nounwind uwtable
define range(i32 0, 2) i32 @PKCS12_set_pbmac1_pbkdf2(ptr noundef captures(none) %0, ptr noundef %1, i32 noundef %2, ptr noundef %3, i32 noundef %4, i32 noundef %5, ptr noundef %6, ptr noundef %7) local_unnamed_addr #1 {
  %9 = alloca [64 x i8], align 16
  %10 = alloca i32, align 4
  %11 = alloca ptr, align 8
  %12 = alloca ptr, align 8
  call void @llvm.lifetime.start.p0(i64 64, ptr nonnull %9) #5
  call void @llvm.lifetime.start.p0(i64 4, ptr nonnull %10) #5
  call void @llvm.lifetime.start.p0(i64 8, ptr nonnull %11) #5
  call void @llvm.lifetime.start.p0(i64 8, ptr nonnull %12) #5
  store ptr null, ptr %12, align 8, !tbaa !17
  %13 = icmp eq ptr %6, null
  br i1 %13, label %14, label %16

14:                                               ; preds = %8
  %15 = tail call ptr @EVP_sha256() #5
  br label %16

16:                                               ; preds = %14, %8
  %.056 = phi ptr [ %15, %14 ], [ %6, %8 ]
  %17 = icmp eq ptr %7, null
  br i1 %17, label %18, label %20

18:                                               ; preds = %16
  %19 = tail call i32 @EVP_MD_get_type(ptr noundef %.056) #5
  br label %22

20:                                               ; preds = %16
  %21 = tail call i32 @OBJ_txt2nid(ptr noundef nonnull %7) #5
  br label %22

22:                                               ; preds = %20, %18
  %.054 = phi i32 [ %19, %18 ], [ %21, %20 ]
  %23 = icmp eq i32 %5, 0
  %spec.store.select = select i1 %23, i32 2048, i32 %5
  %24 = tail call i32 @EVP_MD_get_size(ptr noundef %.056) #5
  %25 = tail call i32 @ossl_md2hmacnid(i32 noundef %.054) #5
  %26 = tail call i32 @EVP_MD_get_type(ptr noundef %.056) #5
  %27 = tail call i32 @ossl_md2hmacnid(i32 noundef %26) #5
  %28 = icmp eq i32 %25, 0
  %29 = icmp eq i32 %27, 0
  %or.cond = select i1 %28, i1 true, i1 %29
  br i1 %or.cond, label %30, label %31

30:                                               ; preds = %22
  tail call void @ERR_new() #5
  tail call void @ERR_set_debug(ptr noundef nonnull @.str, i32 noundef 469, ptr noundef nonnull @__func__.PKCS12_set_pbmac1_pbkdf2) #5
  tail call void (i32, i32, ptr, ...) @ERR_set_error(i32 noundef 35, i32 noundef 118, ptr noundef null) #5
  br label %77

31:                                               ; preds = %22
  %32 = icmp eq ptr %3, null
  br i1 %32, label %33, label %41

33:                                               ; preds = %31
  %34 = sext i32 %4 to i64
  %35 = tail call noalias ptr @CRYPTO_malloc(i64 noundef %34, ptr noundef nonnull @.str, i32 noundef 474) #5
  %36 = icmp eq ptr %35, null
  br i1 %36, label %77, label %37

37:                                               ; preds = %33
  %38 = tail call i32 @RAND_bytes_ex(ptr noundef null, ptr noundef nonnull %35, i64 noundef %34, i32 noundef 0) #5
  %39 = icmp slt i32 %38, 1
  br i1 %39, label %40, label %41

40:                                               ; preds = %37
  tail call void @ERR_new() #5
  tail call void @ERR_set_debug(ptr noundef nonnull @.str, i32 noundef 479, ptr noundef nonnull @__func__.PKCS12_set_pbmac1_pbkdf2) #5
  tail call void (i32, i32, ptr, ...) @ERR_set_error(i32 noundef 35, i32 noundef 524324, ptr noundef null) #5
  br label %77

41:                                               ; preds = %37, %31
  %42 = phi ptr [ %35, %37 ], [ %3, %31 ]
  %.1 = phi ptr [ %35, %37 ], [ null, %31 ]
  %43 = tail call ptr @PBMAC1PARAM_new() #5
  %44 = tail call ptr @X509_ALGOR_new() #5
  %45 = tail call ptr @PKCS5_pbkdf2_set(i32 noundef %spec.store.select, ptr noundef nonnull %42, i32 noundef %4, i32 noundef %25, i32 noundef %24) #5
  %46 = icmp eq ptr %43, null
  %47 = icmp eq ptr %44, null
  %or.cond3 = select i1 %46, i1 true, i1 %47
  %48 = icmp eq ptr %45, null
  %or.cond5 = select i1 %or.cond3, i1 true, i1 %48
  br i1 %or.cond5, label %77, label %49

49:                                               ; preds = %41
  %50 = tail call fastcc i32 @pkcs12_setup_mac(ptr noundef %0, i32 noundef %spec.store.select, ptr noundef nonnull %42, i32 noundef %4, i32 noundef 162)
  %51 = icmp eq i32 %50, 0
  br i1 %51, label %52, label %53

52:                                               ; preds = %49
  tail call void @ERR_new() #5
  tail call void @ERR_set_debug(ptr noundef nonnull @.str, i32 noundef 492, ptr noundef nonnull @__func__.PKCS12_set_pbmac1_pbkdf2) #5
  tail call void (i32, i32, ptr, ...) @ERR_set_error(i32 noundef 35, i32 noundef 110, ptr noundef null) #5
  br label %77

53:                                               ; preds = %49
  %54 = tail call ptr @OBJ_nid2obj(i32 noundef %27) #5
  %55 = tail call i32 @X509_ALGOR_set0(ptr noundef nonnull %44, ptr noundef %54, i32 noundef 5, ptr noundef null) #5
  %.not66 = icmp eq i32 %55, 0
  br i1 %.not66, label %56, label %57

56:                                               ; preds = %53
  tail call void @ERR_new() #5
  tail call void @ERR_set_debug(ptr noundef nonnull @.str, i32 noundef 497, ptr noundef nonnull @__func__.PKCS12_set_pbmac1_pbkdf2) #5
  tail call void (i32, i32, ptr, ...) @ERR_set_error(i32 noundef 35, i32 noundef 110, ptr noundef null) #5
  br label %77

57:                                               ; preds = %53
  %58 = load ptr, ptr %43, align 8, !tbaa !23
  tail call void @X509_ALGOR_free(ptr noundef %58) #5
  %59 = getelementptr inbounds nuw i8, ptr %43, i64 8
  %60 = load ptr, ptr %59, align 8, !tbaa !46
  tail call void @X509_ALGOR_free(ptr noundef %60) #5
  store ptr %45, ptr %43, align 8, !tbaa !23
  store ptr %44, ptr %59, align 8, !tbaa !46
  %61 = getelementptr inbounds nuw i8, ptr %0, i64 8
  %62 = load ptr, ptr %61, align 8, !tbaa !3
  %63 = load ptr, ptr %62, align 8, !tbaa !11
  call void @X509_SIG_getm(ptr noundef %63, ptr noundef nonnull %12, ptr noundef nonnull %11) #5
  %64 = call ptr @PBMAC1PARAM_it() #5
  %65 = load ptr, ptr %12, align 8, !tbaa !17
  %66 = getelementptr inbounds nuw i8, ptr %65, i64 8
  %67 = call ptr @ASN1_TYPE_pack_sequence(ptr noundef %64, ptr noundef nonnull %43, ptr noundef nonnull %66) #5
  %.not67 = icmp eq ptr %67, null
  br i1 %.not67, label %77, label %68

68:                                               ; preds = %57
  %69 = call i32 @EVP_MD_get_type(ptr noundef %.056) #5
  %70 = call fastcc i32 @pkcs12_gen_mac(ptr noundef nonnull %0, ptr noundef %1, i32 noundef %2, ptr noundef nonnull %9, ptr noundef nonnull %10, i32 noundef %69, i32 noundef %.054, ptr noundef nonnull @pkcs12_pbmac1_pbkdf2_key_gen)
  %.not68 = icmp eq i32 %70, 0
  br i1 %.not68, label %71, label %72

71:                                               ; preds = %68
  call void @ERR_new() #5
  call void @ERR_set_debug(ptr noundef nonnull @.str, i32 noundef 516, ptr noundef nonnull @__func__.PKCS12_set_pbmac1_pbkdf2) #5
  call void (i32, i32, ptr, ...) @ERR_set_error(i32 noundef 35, i32 noundef 109, ptr noundef null) #5
  br label %77

72:                                               ; preds = %68
  %73 = load ptr, ptr %11, align 8, !tbaa !15
  %74 = load i32, ptr %10, align 4, !tbaa !47
  %75 = call i32 @ASN1_OCTET_STRING_set(ptr noundef %73, ptr noundef nonnull %9, i32 noundef %74) #5
  %.not69 = icmp eq i32 %75, 0
  br i1 %.not69, label %76, label %77

76:                                               ; preds = %72
  call void @ERR_new() #5
  call void @ERR_set_debug(ptr noundef nonnull @.str, i32 noundef 520, ptr noundef nonnull @__func__.PKCS12_set_pbmac1_pbkdf2) #5
  call void (i32, i32, ptr, ...) @ERR_set_error(i32 noundef 35, i32 noundef 111, ptr noundef null) #5
  br label %77

77:                                               ; preds = %72, %57, %41, %33, %76, %71, %56, %52, %40, %30
  %.055 = phi i32 [ 0, %30 ], [ 0, %33 ], [ 0, %40 ], [ 0, %41 ], [ 0, %52 ], [ 0, %76 ], [ 0, %71 ], [ 0, %57 ], [ 0, %56 ], [ 1, %72 ]
  %.053 = phi ptr [ null, %30 ], [ null, %33 ], [ %35, %40 ], [ %.1, %41 ], [ %.1, %52 ], [ %.1, %76 ], [ %.1, %71 ], [ %.1, %57 ], [ %.1, %56 ], [ %.1, %72 ]
  %.0 = phi ptr [ null, %30 ], [ null, %33 ], [ null, %40 ], [ %43, %41 ], [ %43, %52 ], [ %43, %76 ], [ %43, %71 ], [ %43, %57 ], [ %43, %56 ], [ %43, %72 ]
  call void @PBMAC1PARAM_free(ptr noundef %.0) #5
  call void @CRYPTO_free(ptr noundef %.053, ptr noundef nonnull @.str, i32 noundef 527) #5
  call void @llvm.lifetime.end.p0(i64 8, ptr nonnull %12) #5
  call void @llvm.lifetime.end.p0(i64 8, ptr nonnull %11) #5
  call void @llvm.lifetime.end.p0(i64 4, ptr nonnull %10) #5
  call void @llvm.lifetime.end.p0(i64 64, ptr nonnull %9) #5
  ret i32 %.055
}